; ModuleID = '23/213.c'
source_filename = "23/213.c"
target datalayout = "e-m:e-p270:32:32-p271:32:32-p272:64:64-i64:64-f80:128-n8:16:32:64-S128"
target triple = "x86_64-pc-linux-gnu"

; Function Attrs: noinline nounwind uwtable
define dso_local i32 @main() #0 {
  %1 = alloca i32, align 4
  %2 = alloca [101 x i8], align 16
  %3 = alloca [101 x i8], align 16
  %4 = alloca i32, align 4
  %5 = alloca i32, align 4
  %6 = alloca i32, align 4
  %7 = alloca i32, align 4
  %8 = alloca i32, align 4
  store i32 0, i32* %1, align 4
  %9 = bitcast [101 x i8]* %3 to i8*
  call void @llvm.memset.p0i8.i64(i8* align 16 %9, i8 0, i64 101, i1 false)
  %10 = getelementptr inbounds [101 x i8], [101 x i8]* %2, i64 0, i64 0
  %11 = call i32 (i8*, ...) bitcast (i32 (...)* @gets to i32 (i8*, ...)*)(i8* %10)
  store i32 0, i32* %8, align 4
  %12 = getelementptr inbounds [101 x i8], [101 x i8]* %2, i64 0, i64 0
  %13 = call i64 @strlen(i8* %12) #4
  %14 = trunc i64 %13 to i32
  store i32 %14, i32* %4, align 4
  %15 = load i32, i32* %4, align 4
  store i32 %15, i32* %6, align 4
  %16 = load i32, i32* %4, align 4
  %17 = sub nsw i32 %16, 1
  store i32 %17, i32* %5, align 4
  br label %18

18:                                               ; preds = %79, %0
  %19 = load i32, i32* %5, align 4
  %20 = icmp sge i32 %19, 0
  br i1 %20, label %21, label %82

21:                                               ; preds = %18
  %22 = load i32, i32* %5, align 4
  %23 = sext i32 %22 to i64
  %24 = getelementptr inbounds [101 x i8], [101 x i8]* %2, i64 0, i64 %23
  %25 = load i8, i8* %24, align 1
  %26 = sext i8 %25 to i32
  %27 = icmp eq i32 %26, 32
  br i1 %27, label %28, label %55

28:                                               ; preds = %21
  %29 = load i32, i32* %5, align 4
  %30 = add nsw i32 %29, 1
  store i32 %30, i32* %7, align 4
  br label %31

31:                                               ; preds = %45, %28
  %32 = load i32, i32* %7, align 4
  %33 = load i32, i32* %6, align 4
  %34 = icmp slt i32 %32, %33
  br i1 %34, label %35, label %48

35:                                               ; preds = %31
  %36 = load i32, i32* %7, align 4
  %37 = sext i32 %36 to i64
  %38 = getelementptr inbounds [101 x i8], [101 x i8]* %2, i64 0, i64 %37
  %39 = load i8, i8* %38, align 1
  %40 = load i32, i32* %8, align 4
  %41 = sext i32 %40 to i64
  %42 = getelementptr inbounds [101 x i8], [101 x i8]* %3, i64 0, i64 %41
  store i8 %39, i8* %42, align 1
  %43 = load i32, i32* %8, align 4
  %44 = add nsw i32 %43, 1
  store i32 %44, i32* %8, align 4
  br label %45

45:                                               ; preds = %35
  %46 = load i32, i32* %7, align 4
  %47 = add nsw i32 %46, 1
  store i32 %47, i32* %7, align 4
  br label %31

48:                                               ; preds = %31
  %49 = load i32, i32* %8, align 4
  %50 = sext i32 %49 to i64
  %51 = getelementptr inbounds [101 x i8], [101 x i8]* %3, i64 0, i64 %50
  store i8 32, i8* %51, align 1
  %52 = load i32, i32* %8, align 4
  %53 = add nsw i32 %52, 1
  store i32 %53, i32* %8, align 4
  %54 = load i32, i32* %5, align 4
  store i32 %54, i32* %6, align 4
  br label %55

55:                                               ; preds = %48, %21
  %56 = load i32, i32* %5, align 4
  %57 = icmp eq i32 %56, 0
  br i1 %57, label %58, label %78

58:                                               ; preds = %55
  %59 = load i32, i32* %5, align 4
  store i32 %59, i32* %7, align 4
  br label %60

60:                                               ; preds = %74, %58
  %61 = load i32, i32* %7, align 4
  %62 = load i32, i32* %6, align 4
  %63 = icmp slt i32 %61, %62
  br i1 %63, label %64, label %77

64:                                               ; preds = %60
  %65 = load i32, i32* %7, align 4
  %66 = sext i32 %65 to i64
  %67 = getelementptr inbounds [101 x i8], [101 x i8]* %2, i64 0, i64 %66
  %68 = load i8, i8* %67, align 1
  %69 = load i32, i32* %8, align 4
  %70 = sext i32 %69 to i64
  %71 = getelementptr inbounds [101 x i8], [101 x i8]* %3, i64 0, i64 %70
  store i8 %68, i8* %71, align 1
  %72 = load i32, i32* %8, align 4
  %73 = add nsw i32 %72, 1
  store i32 %73, i32* %8, align 4
  br label %74

74:                                               ; preds = %64
  %75 = load i32, i32* %7, align 4
  %76 = add nsw i32 %75, 1
  store i32 %76, i32* %7, align 4
  br label %60

77:                                               ; preds = %60
  br label %78

78:                                               ; preds = %77, %55
  br label %79

79:                                               ; preds = %78
  %80 = load i32, i32* %5, align 4
  %81 = add nsw i32 %80, -1
  store i32 %81, i32* %5, align 4
  br label %18

82:                                               ; preds = %18
  %83 = getelementptr inbounds [101 x i8], [101 x i8]* %3, i64 0, i64 0
  %84 = call i32 @puts(i8* %83)
  %85 = load i32, i32* %1, align 4
  ret i32 %85
}

; Function Attrs: argmemonly nounwind willreturn
declare void @llvm.memset.p0i8.i64(i8* nocapture writeonly, i8, i64, i1 immarg) #1

declare dso_local i32 @gets(...) #2

; Function Attrs: nounwind readonly
declare dso_local i64 @strlen(i8*) #3

declare dso_local i32 @puts(i8*) #2


!llvm.module.flags = !{!0}
!llvm.ident = !{!1}

!0 = !{i32 1, !"wchar_size", i32 4}
!1 = !{!"clang version 10.0.0-4ubuntu1 "}
